target datalayout = "e-m:e-p270:32:32-p271:32:32-p272:64:64-i64:64-i128:128-f80:128-n8:16:32:64-S128"
target triple = "x86_64-pc-linux-gnu"

@.str.197 = private unnamed_addr constant [2 x i8] c"-\00", align 1
@.str.198 = private unnamed_addr constant [2 x i8] c"d\00", align 1
@.str.199 = private unnamed_addr constant [2 x i8] c"c\00", align 1
@.str.200 = private unnamed_addr constant [2 x i8] c"s\00", align 1
@.str.201 = private unnamed_addr constant [2 x i8] c"p\00", align 1
@.str.202 = private unnamed_addr constant [2 x i8] c"l\00", align 1
@.str.203 = private unnamed_addr constant [2 x i8] c"r\00", align 1
@.str.204 = private unnamed_addr constant [2 x i8] c"w\00", align 1
@.str.205 = private unnamed_addr constant [2 x i8] c"x\00", align 1
@.str.206 = private unnamed_addr constant [2 x i8] c"t\00", align 1
@.str.207 = private unnamed_addr constant [2 x i8] c"\0A\00", align 1

; Function Attrs: nounwind uwtable
define internal void @print_posix_info_mode(i32 noundef %0) #0 {
  %2 = alloca i32, align 4
  store i32 %0, ptr %2, align 4
  %3 = load i32, ptr %2, align 4
  %4 = and i32 %3, 1048576
  %5 = icmp ne i32 %4, 0
  br i1 %5, label %6, label %8

6:                                                ; preds = %1
  %7 = call i32 (ptr, ...) @printf(ptr noundef @.str.197)
  br label %50

8:                                                ; preds = %1
  %9 = load i32, ptr %2, align 4
  %10 = and i32 %9, 262144
  %11 = icmp ne i32 %10, 0
  br i1 %11, label %12, label %14

12:                                               ; preds = %8
  %13 = call i32 (ptr, ...) @printf(ptr noundef @.str.198)
  br label %49

14:                                               ; preds = %8
  %15 = load i32, ptr %2, align 4
  %16 = and i32 %15, 131072
  %17 = icmp ne i32 %16, 0
  br i1 %17, label %18, label %20

18:                                               ; preds = %14
  %19 = call i32 (ptr, ...) @printf(ptr noundef @.str.199)
  br label %48

20:                                               ; preds = %14
  %21 = load i32, ptr %2, align 4
  %22 = and i32 %21, 393216
  %23 = icmp ne i32 %22, 0
  br i1 %23, label %24, label %26

24:                                               ; preds = %20
  %25 = call i32 (ptr, ...) @printf(ptr noundef @.str.200)
  br label %47

26:                                               ; preds = %20
  %27 = load i32, ptr %2, align 4
  %28 = and i32 %27, 1310720
  %29 = icmp ne i32 %28, 0
  br i1 %29, label %30, label %32

30:                                               ; preds = %26
  %31 = call i32 (ptr, ...) @printf(ptr noundef @.str.200)
  br label %46

32:                                               ; preds = %26
  %33 = load i32, ptr %2, align 4
  %34 = and i32 %33, 65536
  %35 = icmp ne i32 %34, 0
  br i1 %35, label %36, label %38

36:                                               ; preds = %32
  %37 = call i32 (ptr, ...) @printf(ptr noundef @.str.201)
  br label %45

38:                                               ; preds = %32
  %39 = load i32, ptr %2, align 4
  %40 = and i32 %39, 1179648
  %41 = icmp ne i32 %40, 0
  br i1 %41, label %42, label %44

42:                                               ; preds = %38
  %43 = call i32 (ptr, ...) @printf(ptr noundef @.str.202)
  br label %44

44:                                               ; preds = %42, %38
  br label %45

45:                                               ; preds = %44, %36
  br label %46

46:                                               ; preds = %45, %30
  br label %47

47:                                               ; preds = %46, %24
  br label %48

48:                                               ; preds = %47, %18
  br label %49

49:                                               ; preds = %48, %12
  br label %50

50:                                               ; preds = %49, %6
  %51 = load i32, ptr %2, align 4
  %52 = and i32 %51, 1024
  %53 = icmp ne i32 %52, 0
  br i1 %53, label %54, label %56

54:                                               ; preds = %50
  %55 = call i32 (ptr, ...) @printf(ptr noundef @.str.203)
  br label %58

56:                                               ; preds = %50
  %57 = call i32 (ptr, ...) @printf(ptr noundef @.str.197)
  br label %58

58:                                               ; preds = %56, %54
  %59 = load i32, ptr %2, align 4
  %60 = and i32 %59, 512
  %61 = icmp ne i32 %60, 0
  br i1 %61, label %62, label %64

62:                                               ; preds = %58
  %63 = call i32 (ptr, ...) @printf(ptr noundef @.str.204)
  br label %66

64:                                               ; preds = %58
  %65 = call i32 (ptr, ...) @printf(ptr noundef @.str.197)
  br label %66

66:                                               ; preds = %64, %62
  %67 = load i32, ptr %2, align 4
  %68 = and i32 %67, 16384
  %69 = icmp ne i32 %68, 0
  br i1 %69, label %70, label %72

70:                                               ; preds = %66
  %71 = call i32 (ptr, ...) @printf(ptr noundef @.str.200)
  br label %81

72:                                               ; preds = %66
  %73 = load i32, ptr %2, align 4
  %74 = and i32 %73, 256
  %75 = icmp ne i32 %74, 0
  br i1 %75, label %76, label %78

76:                                               ; preds = %72
  %77 = call i32 (ptr, ...) @printf(ptr noundef @.str.205)
  br label %80

78:                                               ; preds = %72
  %79 = call i32 (ptr, ...) @printf(ptr noundef @.str.197)
  br label %80

80:                                               ; preds = %78, %76
  br label %81

81:                                               ; preds = %80, %70
  %82 = load i32, ptr %2, align 4
  %83 = and i32 %82, 64
  %84 = icmp ne i32 %83, 0
  br i1 %84, label %85, label %87

85:                                               ; preds = %81
  %86 = call i32 (ptr, ...) @printf(ptr noundef @.str.203)
  br label %89

87:                                               ; preds = %81
  %88 = call i32 (ptr, ...) @printf(ptr noundef @.str.197)
  br label %89

89:                                               ; preds = %87, %85
  %90 = load i32, ptr %2, align 4
  %91 = and i32 %90, 32
  %92 = icmp ne i32 %91, 0
  br i1 %92, label %93, label %95

93:                                               ; preds = %89
  %94 = call i32 (ptr, ...) @printf(ptr noundef @.str.204)
  br label %97

95:                                               ; preds = %89
  %96 = call i32 (ptr, ...) @printf(ptr noundef @.str.197)
  br label %97

97:                                               ; preds = %95, %93
  %98 = load i32, ptr %2, align 4
  %99 = and i32 %98, 16384
  %100 = icmp ne i32 %99, 0
  br i1 %100, label %101, label %103

101:                                              ; preds = %97
  %102 = call i32 (ptr, ...) @printf(ptr noundef @.str.200)
  br label %103

103:                                              ; preds = %101, %97
  %104 = load i32, ptr %2, align 4
  %105 = and i32 %104, 8192
  %106 = icmp ne i32 %105, 0
  br i1 %106, label %107, label %109

107:                                              ; preds = %103
  %108 = call i32 (ptr, ...) @printf(ptr noundef @.str.200)
  br label %109

109:                                              ; preds = %107, %103
  %110 = load i32, ptr %2, align 4
  %111 = and i32 %110, 16
  %112 = icmp ne i32 %111, 0
  br i1 %112, label %113, label %115

113:                                              ; preds = %109
  %114 = call i32 (ptr, ...) @printf(ptr noundef @.str.205)
  br label %117

115:                                              ; preds = %109
  %116 = call i32 (ptr, ...) @printf(ptr noundef @.str.197)
  br label %117

117:                                              ; preds = %115, %113
  %118 = load i32, ptr %2, align 4
  %119 = and i32 %118, 4
  %120 = icmp ne i32 %119, 0
  br i1 %120, label %121, label %123

121:                                              ; preds = %117
  %122 = call i32 (ptr, ...) @printf(ptr noundef @.str.203)
  br label %125

123:                                              ; preds = %117
  %124 = call i32 (ptr, ...) @printf(ptr noundef @.str.197)
  br label %125

125:                                              ; preds = %123, %121
  %126 = load i32, ptr %2, align 4
  %127 = and i32 %126, 2
  %128 = icmp ne i32 %127, 0
  br i1 %128, label %129, label %131

129:                                              ; preds = %125
  %130 = call i32 (ptr, ...) @printf(ptr noundef @.str.204)
  br label %133

131:                                              ; preds = %125
  %132 = call i32 (ptr, ...) @printf(ptr noundef @.str.197)
  br label %133

133:                                              ; preds = %131, %129
  %134 = load i32, ptr %2, align 4
  %135 = and i32 %134, 1
  %136 = icmp ne i32 %135, 0
  br i1 %136, label %137, label %139

137:                                              ; preds = %133
  %138 = call i32 (ptr, ...) @printf(ptr noundef @.str.205)
  br label %141

139:                                              ; preds = %133
  %140 = call i32 (ptr, ...) @printf(ptr noundef @.str.197)
  br label %141

141:                                              ; preds = %139, %137
  %142 = load i32, ptr %2, align 4
  %143 = and i32 %142, 4096
  %144 = icmp ne i32 %143, 0
  br i1 %144, label %145, label %147

145:                                              ; preds = %141
  %146 = call i32 (ptr, ...) @printf(ptr noundef @.str.206)
  br label %147

147:                                              ; preds = %145, %141
  %148 = call i32 (ptr, ...) @printf(ptr noundef @.str.207)
  ret void
}