; Function Attrs: nofree nounwind uwtable
define internal fastcc void @print_posix_info_mode(i32 noundef %0) unnamed_addr #8 {
  %2 = and i32 %0, 1048576
  %.not = icmp eq i32 %2, 0
  br i1 %.not, label %3, label %.sink.split

3:                                                ; preds = %1
  %4 = and i32 %0, 262144
  %.not20 = icmp eq i32 %4, 0
  br i1 %.not20, label %5, label %.sink.split

5:                                                ; preds = %3
  %6 = and i32 %0, 131072
  %.not21 = icmp eq i32 %6, 0
  br i1 %.not21, label %7, label %.sink.split

7:                                                ; preds = %5
  %8 = and i32 %0, 65536
  %.not22 = icmp eq i32 %8, 0
  br i1 %.not22, label %9, label %.sink.split

.sink.split:                                      ; preds = %7, %5, %3, %1
  %.sink = phi i32 [ 45, %1 ], [ 100, %3 ], [ 99, %5 ], [ 112, %7 ]
  %putchar24 = tail call i32 @putchar(i32 %.sink)
  br label %9

9:                                                ; preds = %.sink.split, %7
  %10 = and i32 %0, 1024
  %.not26 = icmp eq i32 %10, 0
  %. = select i1 %.not26, i32 45, i32 114
  %putchar27 = tail call i32 @putchar(i32 %.)
  %11 = and i32 %0, 512
  %.not29 = icmp eq i32 %11, 0
  %.sink62 = select i1 %.not29, i32 45, i32 119
  %putchar30 = tail call i32 @putchar(i32 %.sink62)
  %12 = and i32 %0, 16384
  %.not32 = icmp eq i32 %12, 0
  %13 = and i32 %0, 256
  %.not33 = icmp eq i32 %13, 0
  %.70 = select i1 %.not33, i32 45, i32 120
  %.sink63 = select i1 %.not32, i32 %.70, i32 115
  %putchar35 = tail call i32 @putchar(i32 %.sink63)
  %14 = and i32 %0, 64
  %.not37 = icmp eq i32 %14, 0
  %.sink64 = select i1 %.not37, i32 45, i32 114
  %putchar38 = tail call i32 @putchar(i32 %.sink64)
  %15 = and i32 %0, 32
  %.not40 = icmp eq i32 %15, 0
  %.sink65 = select i1 %.not40, i32 45, i32 119
  %putchar41 = tail call i32 @putchar(i32 %.sink65)
  br i1 %.not32, label %17, label %16

16:                                               ; preds = %9
  %putchar43 = tail call i32 @putchar(i32 115)
  br label %17

17:                                               ; preds = %16, %9
  %18 = and i32 %0, 8192
  %.not44 = icmp eq i32 %18, 0
  br i1 %.not44, label %20, label %19

19:                                               ; preds = %17
  %putchar45 = tail call i32 @putchar(i32 115)
  br label %20

20:                                               ; preds = %19, %17
  %21 = and i32 %0, 16
  %.not46 = icmp eq i32 %21, 0
  %.71 = select i1 %.not46, i32 45, i32 120
  %putchar47 = tail call i32 @putchar(i32 %.71)
  %22 = and i32 %0, 4
  %.not49 = icmp eq i32 %22, 0
  %.sink67 = select i1 %.not49, i32 45, i32 114
  %putchar50 = tail call i32 @putchar(i32 %.sink67)
  %23 = and i32 %0, 2
  %.not52 = icmp eq i32 %23, 0
  %.sink68 = select i1 %.not52, i32 45, i32 119
  %putchar53 = tail call i32 @putchar(i32 %.sink68)
  %24 = and i32 %0, 1
  %.not55 = icmp eq i32 %24, 0
  %.sink69 = select i1 %.not55, i32 45, i32 120
  %putchar56 = tail call i32 @putchar(i32 %.sink69)
  %25 = and i32 %0, 4096
  %.not58 = icmp eq i32 %25, 0
  br i1 %.not58, label %27, label %26

26:                                               ; preds = %20
  %putchar59 = tail call i32 @putchar(i32 116)
  br label %27

27:                                               ; preds = %26, %20
  %putchar60 = tail call i32 @putchar(i32 10)
  ret void
}